target datalayout = "e-m:e-p270:32:32-p271:32:32-p272:64:64-i64:64-i128:128-f80:128-n8:16:32:64-S128"
target triple = "x86_64-unknown-linux-gnu"

%"class.icu_75::UObject" = type { ptr }
%"class.icu_75::Normalizer2Impl" = type { %"class.icu_75::UObject", i16, i16, i16, i16, i16, i16, i16, i16, i16, i16, i16, i16, ptr, ptr, ptr, ptr, %"struct.icu_75::UInitOnce", ptr }
%"struct.icu_75::UInitOnce" = type { %"struct.std::atomic", i32 }
%"struct.std::atomic" = type { %"struct.std::__atomic_base" }
%"struct.std::__atomic_base" = type { i32 }

; Function Attrs: mustprogress nounwind uwtable
define linkonce_odr noundef signext i8 @_ZNK6icu_7515Normalizer2Impl31singleLeadMightHaveNonZeroFCD16Ei(ptr noundef nonnull align 8 dereferenceable(80) %this, i32 noundef %lead) #2 comdat align 2 {
entry:
  %retval = alloca i8, align 1
  %this.addr = alloca ptr, align 8
  %lead.addr = alloca i32, align 4
  %bits = alloca i8, align 1
  store ptr %this, ptr %this.addr, align 8
  store i32 %lead, ptr %lead.addr, align 4
  %this1 = load ptr, ptr %this.addr, align 8
  %smallFCD = getelementptr inbounds %"class.icu_75::Normalizer2Impl", ptr %this1, i32 0, i32 16
  %0 = load ptr, ptr %smallFCD, align 8
  %1 = load i32, ptr %lead.addr, align 4
  %shr = ashr i32 %1, 8
  %idxprom = sext i32 %shr to i64
  %arrayidx = getelementptr inbounds i8, ptr %0, i64 %idxprom
  %2 = load i8, ptr %arrayidx, align 1
  store i8 %2, ptr %bits, align 1
  %3 = load i8, ptr %bits, align 1
  %conv = zext i8 %3 to i32
  %cmp = icmp eq i32 %conv, 0
  br i1 %cmp, label %if.then, label %if.end

if.then:                                          ; preds = %entry
  store i8 0, ptr %retval, align 1
  br label %return

if.end:                                           ; preds = %entry
  %4 = load i8, ptr %bits, align 1
  %conv2 = zext i8 %4 to i32
  %5 = load i32, ptr %lead.addr, align 4
  %shr3 = ashr i32 %5, 5
  %and = and i32 %shr3, 7
  %shr4 = ashr i32 %conv2, %and
  %and5 = and i32 %shr4, 1
  %conv6 = trunc i32 %and5 to i8
  store i8 %conv6, ptr %retval, align 1
  br label %return

return:                                           ; preds = %if.end, %if.then
  %6 = load i8, ptr %retval, align 1
  ret i8 %6
}

; Function Attrs: mustprogress uwtable
define linkonce_odr noundef zeroext i16 @_ZNK6icu_7515Normalizer2Impl8getFCD16Ei(ptr noundef nonnull align 8 dereferenceable(80) %this, i32 noundef %c) #0 comdat align 2 {
entry:
  %retval = alloca i16, align 2
  %this.addr = alloca ptr, align 8
  %c.addr = alloca i32, align 4
  store ptr %this, ptr %this.addr, align 8
  store i32 %c, ptr %c.addr, align 4
  %this1 = load ptr, ptr %this.addr, align 8
  %0 = load i32, ptr %c.addr, align 4
  %minDecompNoCP = getelementptr inbounds %"class.icu_75::Normalizer2Impl", ptr %this1, i32 0, i32 1
  %1 = load i16, ptr %minDecompNoCP, align 8
  %conv = zext i16 %1 to i32
  %cmp = icmp slt i32 %0, %conv
  br i1 %cmp, label %if.then, label %if.else

if.then:                                          ; preds = %entry
  store i16 0, ptr %retval, align 2
  br label %return

if.else:                                          ; preds = %entry
  %2 = load i32, ptr %c.addr, align 4
  %cmp2 = icmp sle i32 %2, 65535
  br i1 %cmp2, label %if.then3, label %if.end5

if.then3:                                         ; preds = %if.else
  %3 = load i32, ptr %c.addr, align 4
  %call = call noundef signext i8 @_ZNK6icu_7515Normalizer2Impl31singleLeadMightHaveNonZeroFCD16Ei(ptr noundef nonnull align 8 dereferenceable(80) %this1, i32 noundef %3)
  %tobool = icmp ne i8 %call, 0
  br i1 %tobool, label %if.end, label %if.then4

if.then4:                                         ; preds = %if.then3
  store i16 0, ptr %retval, align 2
  br label %return

if.end:                                           ; preds = %if.then3
  br label %if.end5

if.end5:                                          ; preds = %if.end, %if.else
  br label %if.end6

if.end6:                                          ; preds = %if.end5
  %4 = load i32, ptr %c.addr, align 4
  %call7 = call noundef zeroext i16 @_ZNK6icu_7515Normalizer2Impl20getFCD16FromNormDataEi(ptr noundef nonnull align 8 dereferenceable(80) %this1, i32 noundef %4)
  store i16 %call7, ptr %retval, align 2
  br label %return

return:                                           ; preds = %if.end6, %if.then4, %if.then
  %5 = load i16, ptr %retval, align 2
  ret i16 %5
}

; Function Attrs: mustprogress uwtable
define noundef zeroext i8 @_ZNK6icu_7515Normalizer2Impl18getPreviousTrailCCEPKDsS2_(ptr noundef nonnull align 8 dereferenceable(80) %this, ptr noundef %start, ptr noundef %p) #0 align 2 {
entry:
  %retval = alloca i8, align 1
  %this.addr = alloca ptr, align 8
  %start.addr = alloca ptr, align 8
  %p.addr = alloca ptr, align 8
  %i = alloca i32, align 4
  %c = alloca i32, align 4
  %__c2 = alloca i16, align 2
  store ptr %this, ptr %this.addr, align 8
  store ptr %start, ptr %start.addr, align 8
  store ptr %p, ptr %p.addr, align 8
  %this1 = load ptr, ptr %this.addr, align 8
  %0 = load ptr, ptr %start.addr, align 8
  %1 = load ptr, ptr %p.addr, align 8
  %cmp = icmp eq ptr %0, %1
  br i1 %cmp, label %if.then, label %if.end

if.then:                                          ; preds = %entry
  store i8 0, ptr %retval, align 1
  br label %return

if.end:                                           ; preds = %entry
  %2 = load ptr, ptr %p.addr, align 8
  %3 = load ptr, ptr %start.addr, align 8
  %sub.ptr.lhs.cast = ptrtoint ptr %2 to i64
  %sub.ptr.rhs.cast = ptrtoint ptr %3 to i64
  %sub.ptr.sub = sub i64 %sub.ptr.lhs.cast, %sub.ptr.rhs.cast
  %sub.ptr.div = sdiv exact i64 %sub.ptr.sub, 2
  %conv = trunc i64 %sub.ptr.div to i32
  store i32 %conv, ptr %i, align 4
  br label %do.body

do.body:                                          ; preds = %if.end
  %4 = load ptr, ptr %start.addr, align 8
  %5 = load i32, ptr %i, align 4
  %dec = add nsw i32 %5, -1
  store i32 %dec, ptr %i, align 4
  %idxprom = sext i32 %dec to i64
  %arrayidx = getelementptr inbounds i16, ptr %4, i64 %idxprom
  %6 = load i16, ptr %arrayidx, align 2
  %conv2 = zext i16 %6 to i32
  store i32 %conv2, ptr %c, align 4
  %7 = load i32, ptr %c, align 4
  %and = and i32 %7, -1024
  %cmp3 = icmp eq i32 %and, 56320
  br i1 %cmp3, label %if.then4, label %if.end16

if.then4:                                         ; preds = %do.body
  %8 = load i32, ptr %i, align 4
  %cmp5 = icmp sgt i32 %8, 0
  br i1 %cmp5, label %land.lhs.true, label %if.end15

land.lhs.true:                                    ; preds = %if.then4
  %9 = load ptr, ptr %start.addr, align 8
  %10 = load i32, ptr %i, align 4
  %sub = sub nsw i32 %10, 1
  %idxprom6 = sext i32 %sub to i64
  %arrayidx7 = getelementptr inbounds i16, ptr %9, i64 %idxprom6
  %11 = load i16, ptr %arrayidx7, align 2
  store i16 %11, ptr %__c2, align 2
  %conv8 = zext i16 %11 to i32
  %and9 = and i32 %conv8, -1024
  %cmp10 = icmp eq i32 %and9, 55296
  br i1 %cmp10, label %if.then11, label %if.end15

if.then11:                                        ; preds = %land.lhs.true
  %12 = load i32, ptr %i, align 4
  %dec12 = add nsw i32 %12, -1
  store i32 %dec12, ptr %i, align 4
  %13 = load i16, ptr %__c2, align 2
  %conv13 = zext i16 %13 to i32
  %shl = shl i32 %conv13, 10
  %14 = load i32, ptr %c, align 4
  %add = add nsw i32 %shl, %14
  %sub14 = sub nsw i32 %add, 56613888
  store i32 %sub14, ptr %c, align 4
  br label %if.end15

if.end15:                                         ; preds = %if.then11, %land.lhs.true, %if.then4
  br label %if.end16

if.end16:                                         ; preds = %if.end15, %do.body
  br label %do.end

do.end:                                           ; preds = %if.end16
  %15 = load i32, ptr %c, align 4
  %call = call noundef zeroext i16 @_ZNK6icu_7515Normalizer2Impl8getFCD16Ei(ptr noundef nonnull align 8 dereferenceable(80) %this1, i32 noundef %15)
  %conv17 = trunc i16 %call to i8
  store i8 %conv17, ptr %retval, align 1
  br label %return

return:                                           ; preds = %do.end, %if.then
  %16 = load i8, ptr %retval, align 1
  ret i8 %16
}