; Function Attrs: mustprogress uwtable
define noundef zeroext i8 @_ZNK6icu_7515Normalizer2Impl18getPreviousTrailCCEPKDsS2_(ptr nocapture noundef nonnull readonly align 8 dereferenceable(80) %this, ptr noundef %start, ptr noundef %p) local_unnamed_addr #0 align 2 {
entry:
  %cmp = icmp eq ptr %start, %p
  br i1 %cmp, label %return, label %if.end

if.end:                                           ; preds = %entry
  %sub.ptr.lhs.cast = ptrtoint ptr %p to i64
  %sub.ptr.rhs.cast = ptrtoint ptr %start to i64
  %sub.ptr.sub = sub i64 %sub.ptr.lhs.cast, %sub.ptr.rhs.cast
  %sub.ptr.div = lshr exact i64 %sub.ptr.sub, 1
  %conv = trunc i64 %sub.ptr.div to i32
  %dec = shl i64 %sub.ptr.sub, 31
  %sext = add i64 %dec, -4294967296
  %idxprom = ashr i64 %sext, 32
  %arrayidx = getelementptr inbounds i16, ptr %start, i64 %idxprom
  %0 = load i16, ptr %arrayidx, align 2
  %conv2 = zext i16 %0 to i32
  %and = and i32 %conv2, 64512
  %cmp3 = icmp eq i32 %and, 56320
  %cmp5 = icmp sgt i32 %conv, 1
  %or.cond = and i1 %cmp5, %cmp3
  br i1 %or.cond, label %land.lhs.true, label %do.end

land.lhs.true:                                    ; preds = %if.end
  %sub = add nuw i64 %sub.ptr.div, 4294967294
  %idxprom6 = and i64 %sub, 4294967295
  %arrayidx7 = getelementptr inbounds i16, ptr %start, i64 %idxprom6
  %1 = load i16, ptr %arrayidx7, align 2
  %conv8 = zext i16 %1 to i32
  %and9 = and i32 %conv8, 64512
  %cmp10 = icmp eq i32 %and9, 55296
  br i1 %cmp10, label %if.then11, label %do.end

if.then11:                                        ; preds = %land.lhs.true
  %shl = shl nuw nsw i32 %conv8, 10
  %add = add nuw nsw i32 %conv2, -56613888
  %sub14 = add nsw i32 %add, %shl
  br label %do.end

do.end:                                           ; preds = %if.end, %if.then11, %land.lhs.true
  %c.0 = phi i32 [ %sub14, %if.then11 ], [ %conv2, %land.lhs.true ], [ %conv2, %if.end ]
  %minDecompNoCP.i = getelementptr inbounds i8, ptr %this, i64 8
  %2 = load i16, ptr %minDecompNoCP.i, align 8
  %conv.i = zext i16 %2 to i32
  %cmp.i = icmp ult i32 %c.0, %conv.i
  br i1 %cmp.i, label %return, label %if.else.i

if.else.i:                                        ; preds = %do.end
  %cmp2.i = icmp ult i32 %c.0, 65536
  br i1 %cmp2.i, label %if.then3.i, label %if.end6.i

if.then3.i:                                       ; preds = %if.else.i
  %smallFCD.i.i = getelementptr inbounds i8, ptr %this, i64 56
  %3 = load ptr, ptr %smallFCD.i.i, align 8
  %shr.i.i = lshr i32 %c.0, 8
  %idxprom.i.i = zext nneg i32 %shr.i.i to i64
  %arrayidx.i.i = getelementptr inbounds i8, ptr %3, i64 %idxprom.i.i
  %4 = load i8, ptr %arrayidx.i.i, align 1
  %cmp.i.i = icmp eq i8 %4, 0
  %conv.i.i = zext i8 %4 to i32
  %shr3.i.i = lshr i32 %c.0, 5
  %and.i.i = and i32 %shr3.i.i, 7
  %5 = shl nuw nsw i32 1, %and.i.i
  %6 = and i32 %5, %conv.i.i
  %tobool.not4.i = icmp eq i32 %6, 0
  %tobool.not.i = select i1 %cmp.i.i, i1 true, i1 %tobool.not4.i
  br i1 %tobool.not.i, label %return, label %if.end6.i

if.end6.i:                                        ; preds = %if.then3.i, %if.else.i
  %call7.i = tail call noundef zeroext i16 @_ZNK6icu_7515Normalizer2Impl20getFCD16FromNormDataEi(ptr noundef nonnull align 8 dereferenceable(80) %this, i32 noundef %c.0)
  %7 = trunc i16 %call7.i to i8
  br label %return

return:                                           ; preds = %if.end6.i, %if.then3.i, %do.end, %entry
  %retval.0 = phi i8 [ 0, %entry ], [ %7, %if.end6.i ], [ 0, %do.end ], [ 0, %if.then3.i ]
  ret i8 %retval.0
}